; Function Attrs: mustprogress uwtable
define { i64, i64 } @_ZN10open_spiel9dou_dizhu23GetSingleTrioCombParamsEi(i32 noundef %0) local_unnamed_addr #4 personality ptr @__gxx_personality_v0 {
  %2 = alloca %"class.std::__cxx11::basic_string", align 8
  %3 = alloca %"class.std::allocator", align 1
  %4 = add i32 %0, -471
  %or.cond = icmp ult i32 %4, -338
  br i1 %or.cond, label %5, label %13

5:                                                ; preds = %1
  call void @_ZNSaIcEC1Ev(ptr noundef nonnull align 1 dereferenceable(1) %3) #19
  invoke void @_ZNSt7__cxx1112basic_stringIcSt11char_traitsIcESaIcEEC2IS3_EEPKcRKS3_(ptr noundef nonnull align 8 dereferenceable(32) %2, ptr noundef nonnull @.str.34, ptr noundef nonnull align 1 dereferenceable(1) %3)
          to label %6 unwind label %8

6:                                                ; preds = %5
  invoke void @_ZN10open_spiel15SpielFatalErrorERKNSt7__cxx1112basic_stringIcSt11char_traitsIcESaIcEEE(ptr noundef nonnull align 8 dereferenceable(32) %2) #20
          to label %7 unwind label %10

7:                                                ; preds = %6
  unreachable

8:                                                ; preds = %5
  %9 = landingpad { ptr, i32 }
          cleanup
  br label %12

10:                                               ; preds = %6
  %11 = landingpad { ptr, i32 }
          cleanup
  call void @_ZNSt7__cxx1112basic_stringIcSt11char_traitsIcESaIcEED1Ev(ptr noundef nonnull align 8 dereferenceable(32) %2) #19
  br label %12

12:                                               ; preds = %10, %8
  %.pn = phi { ptr, i32 } [ %11, %10 ], [ %9, %8 ]
  call void @_ZNSaIcED1Ev(ptr noundef nonnull align 1 dereferenceable(1) %3) #19
  resume { ptr, i32 } %.pn

13:                                               ; preds = %1
  %14 = add nsw i32 %0, -133
  %or.cond.i = icmp ult i32 %14, 182
  %.v = select i1 %or.cond.i, i32 123, i32 197
  %15 = add nuw nsw i32 %0, %.v
  %.018.i2429 = select i1 %or.cond.i, i64 1, i64 2
  %.rhs.trunc32 = select i1 %or.cond.i, i8 14, i8 12
  %.lhs.trunc = trunc i32 %15 to i8
  %16 = udiv i8 %.lhs.trunc, %.rhs.trunc32
  %17 = urem i8 %.lhs.trunc, %.rhs.trunc32
  %.sroa.0.0.insert.ext = zext nneg i8 %16 to i64
  %.sroa.0.0.insert.insert = or disjoint i64 %.sroa.0.0.insert.ext, 4294967296
  %.fca.0.insert = insertvalue { i64, i64 } poison, i64 %.sroa.0.0.insert.insert, 0
  %.sroa.5.8.insert.ext = zext nneg i8 %17 to i64
  %.sroa.5.8.insert.shift = shl nuw nsw i64 %.sroa.5.8.insert.ext, 32
  %.sroa.3.8.insert.insert = or disjoint i64 %.sroa.5.8.insert.shift, %.018.i2429
  %.fca.1.insert = insertvalue { i64, i64 } %.fca.0.insert, i64 %.sroa.3.8.insert.insert, 1
  ret { i64, i64 } %.fca.1.insert
}